; Function Attrs: nounwind uwtable
define internal void @bufferevent_inbuf_wm_cb(ptr noundef %0, ptr readnone captures(none) %1, ptr noundef %2) #0 {
  %4 = tail call i64 @evbuffer_get_length(ptr noundef %0) #7
  %5 = getelementptr inbounds nuw i8, ptr %2, i64 280
  %6 = load i64, ptr %5, align 8
  %.not = icmp ult i64 %4, %6
  %7 = getelementptr inbounds nuw i8, ptr %2, i64 448
  %8 = load ptr, ptr %7, align 8
  %.not.i5 = icmp eq ptr %8, null
  br i1 %.not, label %26, label %9

9:                                                ; preds = %3
  br i1 %.not.i5, label %13, label %10

10:                                               ; preds = %9
  %11 = load ptr, ptr getelementptr inbounds nuw (i8, ptr @evthread_lock_fns_, i64 24), align 8
  %12 = tail call i32 %11(i32 noundef 0, ptr noundef nonnull %8) #7
  br label %13

13:                                               ; preds = %10, %9
  %14 = getelementptr inbounds nuw i8, ptr %2, i64 388
  %15 = load i16, ptr %14, align 4
  %.not12.i = icmp eq i16 %15, 0
  br i1 %.not12.i, label %16, label %22

16:                                               ; preds = %13
  %17 = getelementptr inbounds nuw i8, ptr %2, i64 8
  %18 = load ptr, ptr %17, align 8
  %19 = getelementptr inbounds nuw i8, ptr %18, i64 24
  %20 = load ptr, ptr %19, align 8
  %21 = tail call i32 %20(ptr noundef nonnull %2, i16 noundef signext 2) #7
  %.pre.i = load i16, ptr %14, align 4
  br label %22

22:                                               ; preds = %16, %13
  %23 = phi i16 [ %.pre.i, %16 ], [ %15, %13 ]
  %24 = or i16 %23, 1
  store i16 %24, ptr %14, align 4
  %25 = load ptr, ptr %7, align 8
  %.not13.i = icmp eq ptr %25, null
  br i1 %.not13.i, label %bufferevent_suspend_read_.exit, label %bufferevent_suspend_read_.exit.sink.split

26:                                               ; preds = %3
  br i1 %.not.i5, label %30, label %27

27:                                               ; preds = %26
  %28 = load ptr, ptr getelementptr inbounds nuw (i8, ptr @evthread_lock_fns_, i64 24), align 8
  %29 = tail call i32 %28(i32 noundef 0, ptr noundef nonnull %8) #7
  br label %30

30:                                               ; preds = %27, %26
  %31 = getelementptr inbounds nuw i8, ptr %2, i64 388
  %32 = load i16, ptr %31, align 4
  %33 = and i16 %32, -2
  store i16 %33, ptr %31, align 4
  %.not13.i6 = icmp eq i16 %33, 0
  br i1 %.not13.i6, label %34, label %44

34:                                               ; preds = %30
  %35 = getelementptr inbounds nuw i8, ptr %2, i64 368
  %36 = load i16, ptr %35, align 8
  %37 = and i16 %36, 2
  %.not14.i = icmp eq i16 %37, 0
  br i1 %.not14.i, label %44, label %38

38:                                               ; preds = %34
  %39 = getelementptr inbounds nuw i8, ptr %2, i64 8
  %40 = load ptr, ptr %39, align 8
  %41 = getelementptr inbounds nuw i8, ptr %40, i64 16
  %42 = load ptr, ptr %41, align 8
  %43 = tail call i32 %42(ptr noundef nonnull %2, i16 noundef signext 2) #7
  br label %44

44:                                               ; preds = %38, %34, %30
  %45 = load ptr, ptr %7, align 8
  %.not15.i = icmp eq ptr %45, null
  br i1 %.not15.i, label %bufferevent_suspend_read_.exit, label %bufferevent_suspend_read_.exit.sink.split

bufferevent_suspend_read_.exit.sink.split:        ; preds = %44, %22
  %.sink = phi ptr [ %25, %22 ], [ %45, %44 ]
  %46 = load ptr, ptr getelementptr inbounds nuw (i8, ptr @evthread_lock_fns_, i64 32), align 8
  %47 = tail call i32 %46(i32 noundef 0, ptr noundef nonnull %.sink) #7
  br label %bufferevent_suspend_read_.exit

bufferevent_suspend_read_.exit:                   ; preds = %bufferevent_suspend_read_.exit.sink.split, %44, %22
  ret void
}